; Function Attrs: nounwind sspstrong uwtable
define internal i64 @ossl_pem_passwd_cb0(i64 noundef %0) #0 {
  %2 = alloca i64, align 8
  call void @llvm.lifetime.start.p0(i64 8, ptr nonnull %2) #15
  %3 = tail call i64 @rb_yield(i64 noundef %0) #15
  store i64 %3, ptr %2, align 8, !tbaa !13
  %4 = icmp eq i64 %3, 4
  br i1 %4, label %8, label %5

5:                                                ; preds = %1
  %6 = call i64 @rb_string_value(ptr noundef nonnull %2) #15
  %7 = load i64, ptr %2, align 8, !tbaa !13
  br label %8

8:                                                ; preds = %1, %5
  %.0 = phi i64 [ %7, %5 ], [ 4, %1 ]
  call void @llvm.lifetime.end.p0(i64 8, ptr nonnull %2) #15
  ret i64 %.0
}